; Function Attrs: nounwind uwtable
define dso_local i64 @strbuf_read(ptr noundef captures(none) %0, i32 noundef %1, i64 noundef %2) local_unnamed_addr #3 {
  %4 = getelementptr inbounds nuw i8, ptr %0, i64 8
  %5 = load i64, ptr %4, align 8, !tbaa !16
  %6 = load i64, ptr %0, align 8, !tbaa !15
  %.not = icmp eq i64 %2, 0
  %7 = select i1 %.not, i64 8192, i64 %2
  %.not.i = icmp eq i64 %6, 0
  %8 = icmp eq i64 %7, -1
  %9 = sub nuw i64 -2, %7
  %10 = icmp ult i64 %9, %5
  %or.cond = select i1 %8, i1 true, i1 %10
  br i1 %or.cond, label %11, label %12

11:                                               ; preds = %3
  tail call void (ptr, ...) @die(ptr noundef nonnull @.str) #24
  unreachable

12:                                               ; preds = %3
  br i1 %.not.i, label %13, label %15

13:                                               ; preds = %12
  %14 = getelementptr inbounds nuw i8, ptr %0, i64 16
  store ptr null, ptr %14, align 8, !tbaa !12
  br label %15

15:                                               ; preds = %13, %12
  %16 = add nuw i64 %7, 1
  %17 = add i64 %16, %5
  %18 = icmp ugt i64 %17, %6
  br i1 %18, label %st_mult.exit.i, label %25

st_mult.exit.i:                                   ; preds = %15
  %19 = mul i64 %6, 3
  %20 = add i64 %19, 48
  %21 = lshr i64 %20, 1
  %..i = tail call i64 @llvm.umax.i64(i64 %21, i64 %17)
  store i64 %..i, ptr %0, align 8, !tbaa !15
  %22 = getelementptr inbounds nuw i8, ptr %0, i64 16
  %23 = load ptr, ptr %22, align 8, !tbaa !12
  %24 = tail call ptr @xrealloc(ptr noundef %23, i64 noundef %..i) #25
  store ptr %24, ptr %22, align 8, !tbaa !12
  br label %25

25:                                               ; preds = %st_mult.exit.i, %15
  br i1 %.not.i, label %26, label %strbuf_grow.exit

26:                                               ; preds = %25
  %27 = getelementptr inbounds nuw i8, ptr %0, i64 16
  %28 = load ptr, ptr %27, align 8, !tbaa !12
  store i8 0, ptr %28, align 1, !tbaa !4
  br label %strbuf_grow.exit

strbuf_grow.exit:                                 ; preds = %25, %26
  %29 = getelementptr inbounds nuw i8, ptr %0, i64 16
  %30 = load i64, ptr %0, align 8, !tbaa !15
  %31 = load i64, ptr %4, align 8, !tbaa !16
  %32 = xor i64 %31, -1
  %33 = add i64 %30, %32
  %34 = load ptr, ptr %29, align 8, !tbaa !12
  %35 = getelementptr inbounds nuw i8, ptr %34, i64 %31
  %36 = tail call i64 @read_in_full(i32 noundef %1, ptr noundef %35, i64 noundef %33) #25
  %37 = icmp slt i64 %36, 0
  br i1 %37, label %._crit_edge, label %.lr.ph

._crit_edge:                                      ; preds = %strbuf_release.exit, %strbuf_grow.exit
  %38 = load i64, ptr %0, align 8, !tbaa !15
  br i1 %.not.i, label %39, label %42

39:                                               ; preds = %._crit_edge
  %.not.i28 = icmp eq i64 %38, 0
  br i1 %.not.i28, label %strbuf_release.exit.thread, label %40

40:                                               ; preds = %39
  %41 = load ptr, ptr %29, align 8, !tbaa !12
  tail call void @free(ptr noundef %41) #25
  tail call void @llvm.memcpy.p0.p0.i64(ptr noundef nonnull align 8 dereferenceable(24) %0, ptr noundef nonnull align 8 dereferenceable(24) @__const.strbuf_addftime.munged_fmt, i64 24, i1 false)
  br label %strbuf_release.exit.thread

42:                                               ; preds = %._crit_edge
  %spec.select.i = tail call i64 @llvm.usub.sat.i64(i64 %38, i64 1)
  %43 = icmp ugt i64 %5, %spec.select.i
  br i1 %43, label %44, label %45

44:                                               ; preds = %42
  tail call void (ptr, i32, ptr, ...) @BUG_fl(ptr noundef nonnull @.str.28, i32 noundef 167, ptr noundef nonnull @.str.29) #24
  unreachable

45:                                               ; preds = %42
  store i64 %5, ptr %4, align 8, !tbaa !16
  %46 = load ptr, ptr %29, align 8, !tbaa !12
  %.not9.i = icmp eq ptr %46, @strbuf_slopbuf
  br i1 %.not9.i, label %strbuf_release.exit.thread, label %47

47:                                               ; preds = %45
  %48 = getelementptr inbounds nuw i8, ptr %46, i64 %5
  store i8 0, ptr %48, align 1, !tbaa !4
  br label %strbuf_release.exit.thread

.lr.ph:                                           ; preds = %strbuf_grow.exit, %strbuf_release.exit
  %49 = phi i64 [ %75, %strbuf_release.exit ], [ %36, %strbuf_grow.exit ]
  %50 = phi i64 [ %73, %strbuf_release.exit ], [ %33, %strbuf_grow.exit ]
  %51 = load i64, ptr %4, align 8, !tbaa !16
  %52 = add i64 %51, %49
  store i64 %52, ptr %4, align 8, !tbaa !16
  %53 = icmp slt i64 %49, %50
  br i1 %53, label %77, label %54

54:                                               ; preds = %.lr.ph
  %55 = load i64, ptr %0, align 8, !tbaa !15
  %.not.i29 = icmp eq i64 %55, 0
  %56 = icmp ugt i64 %52, -8194
  br i1 %56, label %57, label %58

57:                                               ; preds = %54
  tail call void (ptr, ...) @die(ptr noundef nonnull @.str) #24
  unreachable

58:                                               ; preds = %54
  br i1 %.not.i29, label %59, label %._crit_edge40

._crit_edge40:                                    ; preds = %58
  %.pre39.pre = load ptr, ptr %29, align 8, !tbaa !12
  br label %60

59:                                               ; preds = %58
  store ptr null, ptr %29, align 8, !tbaa !12
  br label %60

60:                                               ; preds = %._crit_edge40, %59
  %.pre39 = phi ptr [ %.pre39.pre, %._crit_edge40 ], [ null, %59 ]
  %61 = add nuw i64 %52, 8193
  %62 = icmp ugt i64 %61, %55
  br i1 %62, label %63, label %strbuf_release.exit

63:                                               ; preds = %60
  %64 = mul i64 %55, 3
  %65 = add i64 %64, 48
  %66 = lshr i64 %65, 1
  %..i31 = tail call i64 @llvm.umax.i64(i64 %66, i64 %61)
  store i64 %..i31, ptr %0, align 8, !tbaa !15
  %67 = tail call ptr @xrealloc(ptr noundef %.pre39, i64 noundef %..i31) #25
  store ptr %67, ptr %29, align 8, !tbaa !12
  br i1 %.not.i29, label %68, label %strbuf_release.exit

68:                                               ; preds = %63
  store i8 0, ptr %67, align 1, !tbaa !4
  %.pre = load ptr, ptr %29, align 8, !tbaa !12
  br label %strbuf_release.exit

strbuf_release.exit:                              ; preds = %60, %68, %63
  %69 = phi ptr [ %.pre39, %60 ], [ %.pre, %68 ], [ %67, %63 ]
  %70 = load i64, ptr %0, align 8, !tbaa !15
  %71 = load i64, ptr %4, align 8, !tbaa !16
  %72 = xor i64 %71, -1
  %73 = add i64 %70, %72
  %74 = getelementptr inbounds nuw i8, ptr %69, i64 %71
  %75 = tail call i64 @read_in_full(i32 noundef %1, ptr noundef %74, i64 noundef %73) #25
  %76 = icmp slt i64 %75, 0
  br i1 %76, label %._crit_edge, label %.lr.ph

77:                                               ; preds = %.lr.ph
  %78 = load ptr, ptr %29, align 8, !tbaa !12
  %79 = getelementptr inbounds nuw i8, ptr %78, i64 %52
  store i8 0, ptr %79, align 1, !tbaa !4
  %80 = load i64, ptr %4, align 8, !tbaa !16
  %81 = sub i64 %80, %5
  br label %strbuf_release.exit.thread

strbuf_release.exit.thread:                       ; preds = %47, %45, %40, %39, %77
  %.2 = phi i64 [ %81, %77 ], [ -1, %39 ], [ -1, %40 ], [ -1, %45 ], [ -1, %47 ]
  ret i64 %.2
}